; Function Attrs: nounwind uwtable
define ptr @l_List_max_x3f___at_Lean_Elab_InfoTree_goalsAt_x3f___spec__13(ptr noundef %0) local_unnamed_addr #0 {
  %2 = ptrtoint ptr %0 to i64
  %3 = and i64 %2, 1
  %.not.i = icmp eq i64 %3, 0
  br i1 %.not.i, label %7, label %4

4:                                                ; preds = %1
  %5 = lshr i64 %2, 1
  %6 = trunc i64 %5 to i32
  br label %lean_obj_tag.exit

7:                                                ; preds = %1
  %8 = getelementptr i8, ptr %0, i64 4
  %.val.i = load i32, ptr %8, align 4
  %9 = lshr i32 %.val.i, 24
  br label %lean_obj_tag.exit

lean_obj_tag.exit:                                ; preds = %4, %7
  %.0.i = phi i32 [ %6, %4 ], [ %9, %7 ]
  %10 = icmp eq i32 %.0.i, 0
  br i1 %10, label %54, label %11

11:                                               ; preds = %lean_obj_tag.exit
  %12 = getelementptr inbounds nuw i8, ptr %0, i64 8
  %13 = load ptr, ptr %12, align 8, !tbaa !9
  %14 = getelementptr inbounds nuw i8, ptr %0, i64 16
  %15 = load ptr, ptr %14, align 8, !tbaa !9
  br label %16

16:                                               ; preds = %lean_nat_le.exit.i, %11
  %.010.i = phi ptr [ %15, %11 ], [ %39, %lean_nat_le.exit.i ]
  %.0.i10 = phi ptr [ %13, %11 ], [ %.0..i, %lean_nat_le.exit.i ]
  %17 = ptrtoint ptr %.010.i to i64
  %18 = and i64 %17, 1
  %.not.i.i = icmp eq i64 %18, 0
  br i1 %.not.i.i, label %22, label %19

19:                                               ; preds = %16
  %20 = lshr i64 %17, 1
  %21 = trunc i64 %20 to i32
  br label %lean_obj_tag.exit.i

22:                                               ; preds = %16
  %23 = getelementptr i8, ptr %.010.i, i64 4
  %.val.i.i = load i32, ptr %23, align 4
  %24 = lshr i32 %.val.i.i, 24
  br label %lean_obj_tag.exit.i

lean_obj_tag.exit.i:                              ; preds = %22, %19
  %.0.i12.i = phi i32 [ %21, %19 ], [ %24, %22 ]
  %25 = icmp eq i32 %.0.i12.i, 0
  br i1 %25, label %26, label %35

26:                                               ; preds = %lean_obj_tag.exit.i
  %27 = ptrtoint ptr %.0.i10 to i64
  %28 = and i64 %27, 1
  %.not.i11 = icmp eq i64 %28, 0
  br i1 %.not.i11, label %29, label %l_List_foldl___at_Lean_Elab_InfoTree_goalsAt_x3f___spec__14.exit

29:                                               ; preds = %26
  %.val.i13.i = load i32, ptr %.0.i10, align 4, !tbaa !4
  %30 = icmp sgt i32 %.val.i13.i, 0
  br i1 %30, label %31, label %33, !prof !15

31:                                               ; preds = %29
  %32 = add nuw i32 %.val.i13.i, 1
  store i32 %32, ptr %.0.i10, align 4, !tbaa !4
  br label %l_List_foldl___at_Lean_Elab_InfoTree_goalsAt_x3f___spec__14.exit

33:                                               ; preds = %29
  %.not.i14.i = icmp eq i32 %.val.i13.i, 0
  br i1 %.not.i14.i, label %l_List_foldl___at_Lean_Elab_InfoTree_goalsAt_x3f___spec__14.exit, label %34

34:                                               ; preds = %33
  tail call void @lean_inc_ref_cold(ptr noundef nonnull %.0.i10) #7
  br label %l_List_foldl___at_Lean_Elab_InfoTree_goalsAt_x3f___spec__14.exit

35:                                               ; preds = %lean_obj_tag.exit.i
  %36 = getelementptr inbounds nuw i8, ptr %.010.i, i64 8
  %37 = load ptr, ptr %36, align 8, !tbaa !9
  %38 = getelementptr inbounds nuw i8, ptr %.010.i, i64 16
  %39 = load ptr, ptr %38, align 8, !tbaa !9
  %40 = ptrtoint ptr %.0.i10 to i64
  %41 = and i64 %40, 1
  %42 = icmp ne i64 %41, 0
  %43 = ptrtoint ptr %37 to i64
  %44 = and i64 %43, 1
  %45 = icmp ne i64 %44, 0
  %or.cond.i = select i1 %42, i1 %45, i1 false
  br i1 %or.cond.i, label %46, label %.critedge.i.i, !prof !18

46:                                               ; preds = %35
  %47 = icmp ule ptr %.0.i10, %37
  br label %lean_nat_le.exit.i

.critedge.i.i:                                    ; preds = %35
  %48 = tail call zeroext i1 @lean_nat_big_le(ptr noundef %.0.i10, ptr noundef %37) #7
  br label %lean_nat_le.exit.i

lean_nat_le.exit.i:                               ; preds = %.critedge.i.i, %46
  %.0.i.i = phi i1 [ %47, %46 ], [ %48, %.critedge.i.i ]
  %.0..i = select i1 %.0.i.i, ptr %37, ptr %.0.i10
  br label %16

l_List_foldl___at_Lean_Elab_InfoTree_goalsAt_x3f___spec__14.exit: ; preds = %26, %31, %33, %34
  tail call void @lean_inc_heartbeat() #7
  %49 = tail call noalias ptr @mi_malloc_small(i64 noundef 16) #7
  %50 = icmp eq ptr %49, null
  br i1 %50, label %51, label %lean_alloc_ctor.exit

51:                                               ; preds = %l_List_foldl___at_Lean_Elab_InfoTree_goalsAt_x3f___spec__14.exit
  tail call void @lean_internal_panic_out_of_memory() #8
  unreachable

lean_alloc_ctor.exit:                             ; preds = %l_List_foldl___at_Lean_Elab_InfoTree_goalsAt_x3f___spec__14.exit
  %52 = getelementptr inbounds nuw i8, ptr %49, i64 4
  store i32 1, ptr %49, align 4, !tbaa !4
  store i32 16842768, ptr %52, align 4
  %53 = getelementptr inbounds nuw i8, ptr %49, i64 8
  store ptr %.0.i10, ptr %53, align 8, !tbaa !9
  br label %54

54:                                               ; preds = %lean_obj_tag.exit, %lean_alloc_ctor.exit
  %.0 = phi ptr [ %49, %lean_alloc_ctor.exit ], [ inttoptr (i64 1 to ptr), %lean_obj_tag.exit ]
  ret ptr %.0
}